(lp0
VF:\u005cPython\u005cPrograms\u005cmy_dlib_face_detection_application\u005ctemplates\u005cXuHongBin.jpg
p1
aVF:\u005cPython\u005cPrograms\u005cmy_dlib_face_detection_application\u005ctemplates\u005c\u8d1d\u514b\u6c49\u59c6.jpg
p2
aVF:\u005cPython\u005cPrograms\u005cmy_dlib_face_detection_application\u005ctemplates\u005c\u54c8\u7ef4.jpg
p3
aVF:\u005cPython\u005cPrograms\u005cmy_dlib_face_detection_application\u005ctemplates\u005c\u6885\u897f.jpg
p4
aVF:\u005cPython\u005cPrograms\u005cmy_dlib_face_detection_application\u005ctemplates\u005c\u666e\u4eac.jpg
p5
aVF:\u005cPython\u005cPrograms\u005cmy_dlib_face_detection_application\u005ctemplates\u005c\u4e54\u5e03\u65af.jpg
p6
aVF:\u005cPython\u005cPrograms\u005cmy_dlib_face_detection_application\u005ctemplates\u005c\u82cf\u4e9a\u96f7\u65af.jpg
p7
aVF:\u005cPython\u005cPrograms\u005cmy_dlib_face_detection_application\u005ctemplates\u005c\u4f0a\u6d85\u65af\u5854.jpg
p8
a.